; Function Attrs: nounwind uwtable
define double @cvSensNorm(ptr noundef readonly captures(none) %0, ptr noundef %1, ptr noundef %2) local_unnamed_addr #0 {
  %4 = getelementptr inbounds nuw i8, ptr %0, i64 144
  %5 = load i32, ptr %4, align 8, !tbaa !156
  %6 = getelementptr inbounds nuw i8, ptr %0, i64 2640
  %7 = load ptr, ptr %6, align 8, !tbaa !103
  %8 = tail call i32 @N_VWrmsNormVectorArray(i32 noundef %5, ptr noundef %1, ptr noundef %2, ptr noundef %7) #13
  %9 = load ptr, ptr %6, align 8, !tbaa !103
  %10 = load double, ptr %9, align 8, !tbaa !69
  %11 = load i32, ptr %4, align 8, !tbaa !156
  %12 = icmp sgt i32 %11, 1
  br i1 %12, label %.lr.ph.preheader, label %._crit_edge

.lr.ph.preheader:                                 ; preds = %3
  %wide.trip.count = zext nneg i32 %11 to i64
  br label %.lr.ph

.lr.ph:                                           ; preds = %.lr.ph.preheader, %.lr.ph
  %indvars.iv = phi i64 [ 1, %.lr.ph.preheader ], [ %indvars.iv.next, %.lr.ph ]
  %.016 = phi double [ %10, %.lr.ph.preheader ], [ %.1, %.lr.ph ]
  %13 = getelementptr inbounds nuw double, ptr %9, i64 %indvars.iv
  %14 = load double, ptr %13, align 8, !tbaa !69
  %15 = fcmp ogt double %14, %.016
  %.1 = select i1 %15, double %14, double %.016
  %indvars.iv.next = add nuw nsw i64 %indvars.iv, 1
  %exitcond.not = icmp eq i64 %indvars.iv.next, %wide.trip.count
  br i1 %exitcond.not, label %._crit_edge, label %.lr.ph

._crit_edge:                                      ; preds = %.lr.ph, %3
  %.0.lcssa = phi double [ %10, %3 ], [ %.1, %.lr.ph ]
  ret double %.0.lcssa
}